; Function Attrs: nounwind uwtable
define internal void @zend_jit_invalid_method_call_tmp(ptr noundef %0) #0 {
  %2 = load ptr, ptr getelementptr inbounds (%struct._zend_executor_globals, ptr @executor_globals, i64 0, i32 17), align 8
  %3 = load ptr, ptr %2, align 8
  %4 = getelementptr inbounds i8, ptr %3, i64 12
  %5 = load i32, ptr %4, align 4
  %6 = sext i32 %5 to i64
  %7 = getelementptr inbounds i8, ptr %3, i64 %6
  %8 = getelementptr inbounds i8, ptr %0, i64 8
  %9 = load i8, ptr %8, align 8
  %10 = icmp eq i8 %9, 0
  br i1 %10, label %11, label %28

11:                                               ; preds = %1
  %12 = getelementptr inbounds i8, ptr %3, i64 29
  %13 = load i8, ptr %12, align 1
  %14 = icmp eq i8 %13, 8
  br i1 %14, label %15, label %28

15:                                               ; preds = %11
  %16 = getelementptr inbounds i8, ptr %2, i64 24
  %17 = load ptr, ptr %16, align 8
  %18 = getelementptr inbounds i8, ptr %17, i64 112
  %19 = load ptr, ptr %18, align 8
  %20 = getelementptr inbounds i8, ptr %3, i64 8
  %21 = load i32, ptr %20, align 8
  %22 = lshr i32 %21, 4
  %23 = add nsw i32 %22, -5
  %24 = zext i32 %23 to i64
  %25 = getelementptr inbounds ptr, ptr %19, i64 %24
  %26 = load ptr, ptr %25, align 8
  tail call void (i32, ptr, ...) @zend_error_unchecked(i32 noundef 2, ptr noundef nonnull @.str.119, ptr noundef %26) #32
  %27 = load ptr, ptr getelementptr inbounds (%struct._zend_executor_globals, ptr @executor_globals, i64 0, i32 50), align 8
  %.not.i = icmp eq ptr %27, null
  br i1 %.not.i, label %28, label %zend_jit_invalid_method_call.exit

28:                                               ; preds = %15, %11, %1
  %.0.i = phi ptr [ %0, %11 ], [ %0, %1 ], [ @executor_globals, %15 ]
  %29 = load ptr, ptr %7, align 8
  %30 = getelementptr inbounds i8, ptr %29, i64 24
  %31 = tail call ptr @zend_zval_value_name(ptr noundef nonnull %.0.i) #32
  tail call void (ptr, ptr, ...) @zend_throw_error(ptr noundef null, ptr noundef nonnull @.str.148, ptr noundef nonnull %30, ptr noundef %31) #32
  br label %zend_jit_invalid_method_call.exit

zend_jit_invalid_method_call.exit:                ; preds = %15, %28
  %32 = getelementptr inbounds i8, ptr %3, i64 8
  %33 = load i32, ptr %32, align 8
  %34 = sext i32 %33 to i64
  %35 = getelementptr inbounds i8, ptr %2, i64 %34
  %36 = getelementptr inbounds i8, ptr %35, i64 9
  %37 = load i8, ptr %36, align 1
  %.not = icmp eq i8 %37, 0
  br i1 %.not, label %45, label %38

38:                                               ; preds = %zend_jit_invalid_method_call.exit
  %39 = load ptr, ptr %35, align 8
  %40 = load i32, ptr %39, align 4
  %41 = icmp ne i32 %40, 0
  tail call void @llvm.assume(i1 %41)
  %42 = add i32 %40, -1
  store i32 %42, ptr %39, align 4
  %.not11 = icmp eq i32 %42, 0
  br i1 %.not11, label %43, label %45

43:                                               ; preds = %38
  %44 = load ptr, ptr %35, align 8
  tail call void @rc_dtor_func(ptr noundef %44) #32
  br label %45

45:                                               ; preds = %43, %38, %zend_jit_invalid_method_call.exit
  ret void
}